target datalayout = "e-m:e-p270:32:32-p271:32:32-p272:64:64-i64:64-i128:128-f80:128-n8:16:32:64-S128"
target triple = "x86_64-pc-linux-gnu"

%struct.SplashStream = type { ptr, ptr, ptr, %union.anon }
%union.anon = type { %struct.anon.0 }
%struct.anon.0 = type { ptr, ptr }

; Function Attrs: nounwind uwtable
define internal i32 @readMem(ptr noundef %0, ptr noundef %1, i32 noundef %2) #0 {
  %4 = alloca ptr, align 8
  %5 = alloca ptr, align 8
  %6 = alloca i32, align 4
  %7 = alloca ptr, align 8
  %8 = alloca ptr, align 8
  store ptr %0, ptr %4, align 8
  store ptr %1, ptr %5, align 8
  store i32 %2, ptr %6, align 4
  %9 = load ptr, ptr %4, align 8
  %10 = getelementptr inbounds %struct.SplashStream, ptr %9, i32 0, i32 3
  %11 = getelementptr inbounds %struct.anon.0, ptr %10, i32 0, i32 0
  %12 = load ptr, ptr %11, align 8
  store ptr %12, ptr %7, align 8
  %13 = load ptr, ptr %4, align 8
  %14 = getelementptr inbounds %struct.SplashStream, ptr %13, i32 0, i32 3
  %15 = getelementptr inbounds %struct.anon.0, ptr %14, i32 0, i32 1
  %16 = load ptr, ptr %15, align 8
  store ptr %16, ptr %8, align 8
  %17 = load i32, ptr %6, align 4
  %18 = sext i32 %17 to i64
  %19 = load ptr, ptr %8, align 8
  %20 = load ptr, ptr %7, align 8
  %21 = ptrtoint ptr %19 to i64
  %22 = ptrtoint ptr %20 to i64
  %23 = sub i64 %21, %22
  %24 = icmp sgt i64 %18, %23
  br i1 %24, label %25, label %32

25:                                               ; preds = %3
  %26 = load ptr, ptr %8, align 8
  %27 = load ptr, ptr %7, align 8
  %28 = ptrtoint ptr %26 to i64
  %29 = ptrtoint ptr %27 to i64
  %30 = sub i64 %28, %29
  %31 = trunc i64 %30 to i32
  store i32 %31, ptr %6, align 4
  br label %32

32:                                               ; preds = %25, %3
  %33 = load i32, ptr %6, align 4
  %34 = icmp sgt i32 %33, 0
  br i1 %34, label %35, label %48

35:                                               ; preds = %32
  %36 = load ptr, ptr %5, align 8
  %37 = load ptr, ptr %7, align 8
  %38 = load i32, ptr %6, align 4
  %39 = sext i32 %38 to i64
  call void @llvm.memcpy.p0.p0.i64(ptr align 1 %36, ptr align 1 %37, i64 %39, i1 false)
  %40 = load i32, ptr %6, align 4
  %41 = load ptr, ptr %7, align 8
  %42 = sext i32 %40 to i64
  %43 = getelementptr inbounds i8, ptr %41, i64 %42
  store ptr %43, ptr %7, align 8
  %44 = load ptr, ptr %7, align 8
  %45 = load ptr, ptr %4, align 8
  %46 = getelementptr inbounds %struct.SplashStream, ptr %45, i32 0, i32 3
  %47 = getelementptr inbounds %struct.anon.0, ptr %46, i32 0, i32 0
  store ptr %44, ptr %47, align 8
  br label %48

48:                                               ; preds = %35, %32
  %49 = load i32, ptr %6, align 4
  ret i32 %49
}