; Function Attrs: mustprogress nofree norecurse nosync nounwind willreturn memory(readwrite, inaccessiblemem: none) uwtable
define internal i32 @readMem(ptr nocapture noundef %0, ptr nocapture noundef writeonly %1, i32 noundef %2) #11 {
  %4 = getelementptr inbounds i8, ptr %0, i64 24
  %5 = load ptr, ptr %4, align 8
  %6 = getelementptr inbounds i8, ptr %0, i64 32
  %7 = load ptr, ptr %6, align 8
  %8 = sext i32 %2 to i64
  %9 = ptrtoint ptr %7 to i64
  %10 = ptrtoint ptr %5 to i64
  %11 = sub i64 %9, %10
  %12 = icmp slt i64 %11, %8
  %13 = trunc i64 %11 to i32
  %spec.select = select i1 %12, i32 %13, i32 %2
  %14 = icmp sgt i32 %spec.select, 0
  br i1 %14, label %15, label %18

15:                                               ; preds = %3
  %16 = zext nneg i32 %spec.select to i64
  tail call void @llvm.memcpy.p0.p0.i64(ptr align 1 %1, ptr align 1 %5, i64 %16, i1 false)
  %17 = getelementptr inbounds i8, ptr %5, i64 %16
  store ptr %17, ptr %4, align 8
  br label %18

18:                                               ; preds = %15, %3
  ret i32 %spec.select
}